; Function Attrs: nofree norecurse nosync nounwind memory(readwrite, inaccessiblemem: none) uwtable
define internal noundef i32 @filter_slice_word(ptr noundef readonly captures(none) %0, ptr noundef readonly captures(none) %1, i32 noundef %2, i32 noundef %3) #5 {
  %5 = getelementptr inbounds nuw i8, ptr %0, i64 72
  %6 = load ptr, ptr %5, align 8, !tbaa !4
  %7 = load i32, ptr %1, align 8, !tbaa !44
  %8 = getelementptr inbounds nuw i8, ptr %1, i64 4
  %9 = load i32, ptr %8, align 4, !tbaa !46
  %10 = getelementptr inbounds nuw i8, ptr %1, i64 8
  %11 = load i32, ptr %10, align 8, !tbaa !48
  %12 = ashr i32 %11, 1
  %13 = getelementptr inbounds nuw i8, ptr %1, i64 12
  %14 = load i32, ptr %13, align 4, !tbaa !51
  %15 = ashr i32 %14, 1
  %16 = getelementptr inbounds nuw i8, ptr %6, i64 80
  %17 = load i32, ptr %16, align 8, !tbaa !62
  %18 = getelementptr inbounds nuw i8, ptr %6, i64 12
  %19 = load i32, ptr %18, align 4, !tbaa !39
  %20 = getelementptr inbounds nuw i8, ptr %6, i64 64
  %21 = load ptr, ptr %20, align 8, !tbaa !63
  %22 = getelementptr inbounds nuw i8, ptr %6, i64 72
  %23 = load ptr, ptr %22, align 8, !tbaa !64
  %24 = getelementptr inbounds nuw i8, ptr %1, i64 16
  %25 = load ptr, ptr %24, align 8, !tbaa !47
  %26 = getelementptr inbounds nuw i8, ptr %1, i64 24
  %27 = load ptr, ptr %26, align 8, !tbaa !50
  %28 = mul nsw i32 %9, %2
  %29 = sdiv i32 %28, %3
  %30 = add nsw i32 %2, 1
  %31 = mul nsw i32 %9, %30
  %32 = sdiv i32 %31, %3
  %invariant.op116 = add i32 %19, 1
  %33 = icmp slt i32 %29, %32
  br i1 %33, label %.lr.ph120, label %._crit_edge121

.lr.ph120:                                        ; preds = %4
  %34 = getelementptr inbounds nuw i8, ptr %6, i64 16
  %35 = load i32, ptr %34, align 8, !tbaa !71
  %36 = icmp sgt i32 %7, 0
  %37 = sext i32 %35 to i64
  br i1 %36, label %.lr.ph.us.preheader, label %._crit_edge121

.lr.ph.us.preheader:                              ; preds = %.lr.ph120
  %38 = sext i32 %19 to i64
  %39 = zext nneg i32 %7 to i64
  %40 = sext i32 %29 to i64
  %41 = sext i32 %9 to i64
  %42 = sext i32 %12 to i64
  %43 = sext i32 %15 to i64
  %wide.trip.count127 = sext i32 %32 to i64
  %invariant.op131 = sub nsw i64 %41, %38
  %wide.trip.count = zext nneg i32 %7 to i64
  %invariant.op = sub nsw i64 %39, %38
  br label %.lr.ph.us

.lr.ph.us:                                        ; preds = %.lr.ph.us.preheader, %._crit_edge.us
  %indvars.iv124 = phi i64 [ %40, %.lr.ph.us.preheader ], [ %indvars.iv.next125, %._crit_edge.us ]
  %44 = trunc i64 %indvars.iv124 to i32
  %45 = sub i32 %44, %19
  %46 = tail call i32 @llvm.smax.i32(i32 %45, i32 0)
  %.not.us = icmp slt i64 %indvars.iv124, %invariant.op131
  %47 = trunc nsw i64 %indvars.iv124 to i32
  %.reass117.us = add i32 %invariant.op116, %47
  %48 = select i1 %.not.us, i32 %.reass117.us, i32 %9
  %49 = sub nsw i32 %48, %46
  %50 = mul nsw i32 %48, %17
  %51 = mul nsw i32 %46, %17
  %52 = mul nsw i64 %indvars.iv124, %42
  %53 = mul nsw i64 %indvars.iv124, %43
  %invariant.gep = getelementptr i16, ptr %25, i64 %52
  %invariant.gep129 = getelementptr i16, ptr %27, i64 %53
  br label %54

54:                                               ; preds = %.lr.ph.us, %54
  %indvars.iv = phi i64 [ 0, %.lr.ph.us ], [ %indvars.iv.next, %54 ]
  %55 = trunc i64 %indvars.iv to i32
  %56 = sub i32 %55, %19
  %57 = tail call i32 @llvm.smax.i32(i32 %56, i32 0)
  %.not107.us = icmp slt i64 %indvars.iv, %invariant.op
  %58 = trunc nuw nsw i64 %indvars.iv to i32
  %.reass.us = add i32 %invariant.op116, %58
  %59 = select i1 %.not107.us, i32 %.reass.us, i32 %7
  %60 = sub nsw i32 %59, %57
  %61 = mul nsw i32 %60, %49
  %62 = add nsw i32 %59, %50
  %63 = sext i32 %62 to i64
  %64 = getelementptr inbounds i64, ptr %21, i64 %63
  %65 = load i64, ptr %64, align 8, !tbaa !65
  %66 = add nsw i32 %57, %50
  %67 = sext i32 %66 to i64
  %68 = getelementptr inbounds i64, ptr %21, i64 %67
  %69 = load i64, ptr %68, align 8, !tbaa !65
  %70 = add nsw i32 %59, %51
  %71 = sext i32 %70 to i64
  %72 = getelementptr inbounds i64, ptr %21, i64 %71
  %73 = load i64, ptr %72, align 8, !tbaa !65
  %74 = add nsw i32 %57, %51
  %75 = sext i32 %74 to i64
  %76 = getelementptr inbounds i64, ptr %21, i64 %75
  %77 = load i64, ptr %76, align 8, !tbaa !65
  %78 = add i64 %69, %73
  %79 = sub i64 %65, %78
  %80 = add i64 %79, %77
  %81 = getelementptr inbounds i64, ptr %23, i64 %63
  %82 = load i64, ptr %81, align 8, !tbaa !65
  %83 = getelementptr inbounds i64, ptr %23, i64 %67
  %84 = load i64, ptr %83, align 8, !tbaa !65
  %85 = getelementptr inbounds i64, ptr %23, i64 %71
  %86 = load i64, ptr %85, align 8, !tbaa !65
  %87 = getelementptr inbounds i64, ptr %23, i64 %75
  %88 = load i64, ptr %87, align 8, !tbaa !65
  %89 = sext i32 %61 to i64
  %90 = udiv i64 %80, %89
  %91 = mul i64 %80, %80
  %92 = udiv i64 %91, %89
  %93 = add i64 %84, %86
  %94 = add i64 %82, %88
  %95 = add i64 %93, %92
  %96 = sub i64 %94, %95
  %97 = udiv i64 %96, %89
  %98 = mul i64 %90, %37
  %gep = getelementptr i16, ptr %invariant.gep, i64 %indvars.iv
  %99 = load i16, ptr %gep, align 2, !tbaa !74
  %100 = zext i16 %99 to i64
  %101 = mul i64 %97, %100
  %102 = add i64 %101, %98
  %103 = add i64 %97, %37
  %104 = udiv i64 %102, %103
  %105 = trunc i64 %104 to i16
  %gep130 = getelementptr i16, ptr %invariant.gep129, i64 %indvars.iv
  store i16 %105, ptr %gep130, align 2, !tbaa !74
  %indvars.iv.next = add nuw nsw i64 %indvars.iv, 1
  %exitcond.not = icmp eq i64 %indvars.iv.next, %wide.trip.count
  br i1 %exitcond.not, label %._crit_edge.us, label %54, !llvm.loop !78

._crit_edge.us:                                   ; preds = %54
  %indvars.iv.next125 = add nsw i64 %indvars.iv124, 1
  %exitcond128.not = icmp eq i64 %indvars.iv.next125, %wide.trip.count127
  br i1 %exitcond128.not, label %._crit_edge121, label %.lr.ph.us, !llvm.loop !79

._crit_edge121:                                   ; preds = %._crit_edge.us, %.lr.ph120, %4
  ret i32 0
}